; Function Attrs: nounwind uwtable
define internal ptr @_codecs_readbuffer_encode(ptr readnone captures(none) %0, ptr noundef readonly captures(none) %1, i64 noundef %2) #0 {
  %4 = alloca %struct.Py_buffer, align 8
  %5 = alloca i64, align 8
  %6 = alloca i64, align 8
  call void @llvm.lifetime.start.p0(i64 80, ptr nonnull %4) #5
  call void @llvm.memset.p0.i64(ptr noundef nonnull align 8 dereferenceable(80) %4, i8 0, i64 80, i1 false)
  %7 = add i64 %2, -1
  %or.cond = icmp ult i64 %7, 2
  br i1 %or.cond, label %10, label %8

8:                                                ; preds = %3
  %9 = tail call i32 @_PyArg_CheckPositional(ptr noundef nonnull @.str.37, i64 noundef %2, i64 noundef 1, i64 noundef 2) #5
  %.not = icmp eq i32 %9, 0
  br i1 %.not, label %_codecs_readbuffer_encode_impl.exit, label %10

10:                                               ; preds = %3, %8
  %11 = load ptr, ptr %1, align 8, !tbaa !22
  %12 = getelementptr i8, ptr %11, i64 8
  %.val = load ptr, ptr %12, align 8, !tbaa !4
  %13 = getelementptr i8, ptr %.val, i64 168
  %.val38 = load i64, ptr %13, align 8, !tbaa !10
  %14 = and i64 %.val38, 268435456
  %.not28 = icmp eq i64 %14, 0
  br i1 %.not28, label %24, label %15

15:                                               ; preds = %10
  call void @llvm.lifetime.start.p0(i64 8, ptr nonnull %5) #5
  %16 = call ptr @PyUnicode_AsUTF8AndSize(ptr noundef nonnull %11, ptr noundef nonnull %5) #5
  %17 = icmp eq ptr %16, null
  br i1 %17, label %.thread, label %18

18:                                               ; preds = %15
  %19 = load ptr, ptr %1, align 8, !tbaa !22
  %20 = load i64, ptr %5, align 8, !tbaa !21
  %21 = call i32 @PyBuffer_FillInfo(ptr noundef nonnull %4, ptr noundef %19, ptr noundef nonnull %16, i64 noundef %20, i32 noundef 1, i32 noundef 0) #5
  %22 = icmp slt i32 %21, 0
  br i1 %22, label %.thread, label %23

.thread:                                          ; preds = %15, %18
  call void @llvm.lifetime.end.p0(i64 8, ptr nonnull %5) #5
  br label %_codecs_readbuffer_encode_impl.exit

23:                                               ; preds = %18
  call void @llvm.lifetime.end.p0(i64 8, ptr nonnull %5) #5
  br label %26

24:                                               ; preds = %10
  %25 = call i32 @PyObject_GetBuffer(ptr noundef nonnull %11, ptr noundef nonnull %4, i32 noundef 0) #5
  %.not29 = icmp eq i32 %25, 0
  br i1 %.not29, label %26, label %_codecs_readbuffer_encode_impl.exit

26:                                               ; preds = %23, %24
  %27 = icmp slt i64 %2, 2
  br i1 %27, label %46, label %28

28:                                               ; preds = %26
  %29 = getelementptr i8, ptr %1, i64 8
  %30 = load ptr, ptr %29, align 8, !tbaa !22
  %31 = icmp eq ptr %30, @_Py_NoneStruct
  br i1 %31, label %46, label %32

32:                                               ; preds = %28
  %33 = getelementptr i8, ptr %30, i64 8
  %.val37 = load ptr, ptr %33, align 8, !tbaa !4
  %34 = getelementptr i8, ptr %.val37, i64 168
  %.val39 = load i64, ptr %34, align 8, !tbaa !10
  %35 = and i64 %.val39, 268435456
  %.not30 = icmp eq i64 %35, 0
  br i1 %.not30, label %45, label %36

36:                                               ; preds = %32
  call void @llvm.lifetime.start.p0(i64 8, ptr nonnull %6) #5
  %37 = call ptr @PyUnicode_AsUTF8AndSize(ptr noundef %30, ptr noundef nonnull %6) #5
  %38 = icmp eq ptr %37, null
  br i1 %38, label %.thread43, label %39

39:                                               ; preds = %36
  %40 = call i64 @strlen(ptr noundef nonnull dereferenceable(1) %37) #6
  %41 = load i64, ptr %6, align 8, !tbaa !21
  %.not31 = icmp eq i64 %40, %41
  br i1 %.not31, label %44, label %42

42:                                               ; preds = %39
  %43 = load ptr, ptr @PyExc_ValueError, align 8, !tbaa !22
  call void @PyErr_SetString(ptr noundef %43, ptr noundef nonnull @.str.44) #5
  br label %.thread43

.thread43:                                        ; preds = %42, %36
  call void @llvm.lifetime.end.p0(i64 8, ptr nonnull %6) #5
  br label %_codecs_readbuffer_encode_impl.exit

44:                                               ; preds = %39
  call void @llvm.lifetime.end.p0(i64 8, ptr nonnull %6) #5
  br label %46

45:                                               ; preds = %32
  call void @_PyArg_BadArgument(ptr noundef nonnull @.str.37, ptr noundef nonnull @.str.52, ptr noundef nonnull @.str.53, ptr noundef %30) #5
  br label %_codecs_readbuffer_encode_impl.exit

46:                                               ; preds = %44, %28, %26
  %47 = load ptr, ptr %4, align 8, !tbaa !28
  %48 = getelementptr inbounds nuw i8, ptr %4, i64 16
  %49 = load i64, ptr %48, align 8, !tbaa !31
  %50 = call ptr @PyBytes_FromStringAndSize(ptr noundef %47, i64 noundef %49) #5
  %51 = icmp eq ptr %50, null
  br i1 %51, label %_codecs_readbuffer_encode_impl.exit, label %52

52:                                               ; preds = %46
  %53 = load i64, ptr %48, align 8, !tbaa !31
  %54 = call ptr (ptr, ...) @Py_BuildValue(ptr noundef nonnull @.str.55, ptr noundef nonnull %50, i64 noundef %53) #5
  br label %_codecs_readbuffer_encode_impl.exit

_codecs_readbuffer_encode_impl.exit:              ; preds = %52, %46, %.thread43, %.thread, %24, %8, %45
  %.024 = phi ptr [ null, %45 ], [ null, %24 ], [ null, %8 ], [ null, %.thread ], [ null, %.thread43 ], [ %54, %52 ], [ null, %46 ]
  %55 = getelementptr inbounds nuw i8, ptr %4, i64 8
  %56 = load ptr, ptr %55, align 8, !tbaa !32
  %.not32 = icmp eq ptr %56, null
  br i1 %.not32, label %58, label %57

57:                                               ; preds = %_codecs_readbuffer_encode_impl.exit
  call void @PyBuffer_Release(ptr noundef nonnull %4) #5
  br label %58

58:                                               ; preds = %_codecs_readbuffer_encode_impl.exit, %57
  call void @llvm.lifetime.end.p0(i64 80, ptr nonnull %4) #5
  ret ptr %.024
}